; Function Attrs: mustprogress uwtable
define hidden void @_ZN20bit_blaster_rewriter15get_translationER7obj_mapI9func_declP4exprER10ptr_vectorIS1_E(ptr nocapture noundef nonnull readonly align 8 dereferenceable(8) %this, ptr noundef nonnull align 8 dereferenceable(24) %const2bits, ptr noundef nonnull align 8 dereferenceable(8) %newbits) local_unnamed_addr #3 align 2 {
entry:
  %ref.tmp.i.i.i = alloca %"struct.obj_map<func_decl, expr *>::key_data", align 8
  %0 = load ptr, ptr %this, align 8
  %m_nodes.i.i.i = getelementptr inbounds i8, ptr %0, i64 776
  %m_nodes.i9.i.i = getelementptr inbounds i8, ptr %0, i64 792
  %m_value.i.i.i.i = getelementptr inbounds i8, ptr %ref.tmp.i.i.i, i64 8
  br label %for.cond.i.i

for.cond.i.i:                                     ; preds = %for.body.i.i, %entry
  %indvars.iv.i.i = phi i64 [ %indvars.iv.next.i.i, %for.body.i.i ], [ 0, %entry ]
  %1 = load ptr, ptr %m_nodes.i.i.i, align 8
  %cmp.i.i.i.i = icmp eq ptr %1, null
  br i1 %cmp.i.i.i.i, label %_ZNK15ref_vector_coreI9func_decl19ref_manager_wrapperIS0_11ast_managerEE4sizeEv.exit.i.i, label %if.end.i.i.i.i

if.end.i.i.i.i:                                   ; preds = %for.cond.i.i
  %arrayidx.i.i.i.i = getelementptr inbounds i8, ptr %1, i64 -4
  %2 = load i32, ptr %arrayidx.i.i.i.i, align 4
  br label %_ZNK15ref_vector_coreI9func_decl19ref_manager_wrapperIS0_11ast_managerEE4sizeEv.exit.i.i

_ZNK15ref_vector_coreI9func_decl19ref_manager_wrapperIS0_11ast_managerEE4sizeEv.exit.i.i: ; preds = %if.end.i.i.i.i, %for.cond.i.i
  %retval.0.i.i.i.i = phi i32 [ %2, %if.end.i.i.i.i ], [ 0, %for.cond.i.i ]
  %3 = zext i32 %retval.0.i.i.i.i to i64
  %cmp.i.i = icmp ult i64 %indvars.iv.i.i, %3
  br i1 %cmp.i.i, label %for.body.i.i, label %for.end.i.i

for.body.i.i:                                     ; preds = %_ZNK15ref_vector_coreI9func_decl19ref_manager_wrapperIS0_11ast_managerEE4sizeEv.exit.i.i
  %arrayidx.i.i8.i.i = getelementptr inbounds ptr, ptr %1, i64 %indvars.iv.i.i
  %4 = load ptr, ptr %arrayidx.i.i8.i.i, align 8
  %5 = load ptr, ptr %m_nodes.i9.i.i, align 8
  %arrayidx.i.i11.i.i = getelementptr inbounds ptr, ptr %5, i64 %indvars.iv.i.i
  %6 = load ptr, ptr %arrayidx.i.i11.i.i, align 8
  call void @llvm.lifetime.start.p0(i64 16, ptr nonnull %ref.tmp.i.i.i)
  store ptr %4, ptr %ref.tmp.i.i.i, align 8
  store ptr %6, ptr %m_value.i.i.i.i, align 8
  call void @_ZN14core_hashtableIN7obj_mapI9func_declP4exprE13obj_map_entryE8obj_hashINS4_8key_dataEE10default_eqIS7_EE6insertEOS7_(ptr noundef nonnull align 8 dereferenceable(20) %const2bits, ptr noundef nonnull align 8 dereferenceable(16) %ref.tmp.i.i.i)
  call void @llvm.lifetime.end.p0(i64 16, ptr nonnull %ref.tmp.i.i.i)
  %indvars.iv.next.i.i = add nuw nsw i64 %indvars.iv.i.i, 1
  br label %for.cond.i.i, !llvm.loop !8

for.end.i.i:                                      ; preds = %_ZNK15ref_vector_coreI9func_decl19ref_manager_wrapperIS0_11ast_managerEE4sizeEv.exit.i.i
  %m_nodes.i12.i.i = getelementptr inbounds i8, ptr %0, i64 816
  %7 = load ptr, ptr %m_nodes.i12.i.i, align 8
  %cmp.i.i.i.i.i = icmp eq ptr %7, null
  br i1 %cmp.i.i.i.i.i, label %_ZN20bit_blaster_rewriter3imp15get_translationER7obj_mapI9func_declP4exprER10ptr_vectorIS2_E.exit, label %_ZNK15ref_vector_coreI9func_decl19ref_manager_wrapperIS0_11ast_managerEE3endEv.exit.i.i

_ZNK15ref_vector_coreI9func_decl19ref_manager_wrapperIS0_11ast_managerEE3endEv.exit.i.i: ; preds = %for.end.i.i
  %arrayidx.i.i.i.i.i = getelementptr inbounds i8, ptr %7, i64 -4
  %8 = load i32, ptr %arrayidx.i.i.i.i.i, align 4
  %9 = zext i32 %8 to i64
  %add.ptr.i.i.i = getelementptr inbounds ptr, ptr %7, i64 %9
  %cmp8.not14.i.i = icmp eq i32 %8, 0
  br i1 %cmp8.not14.i.i, label %_ZN20bit_blaster_rewriter3imp15get_translationER7obj_mapI9func_declP4exprER10ptr_vectorIS2_E.exit, label %for.body9.i.i

for.body9.i.i:                                    ; preds = %_ZNK15ref_vector_coreI9func_decl19ref_manager_wrapperIS0_11ast_managerEE3endEv.exit.i.i, %_ZN6vectorIP9func_declLb0EjE9push_backERKS1_.exit.i.i
  %__begin1.015.i.i = phi ptr [ %incdec.ptr.i.i, %_ZN6vectorIP9func_declLb0EjE9push_backERKS1_.exit.i.i ], [ %7, %_ZNK15ref_vector_coreI9func_decl19ref_manager_wrapperIS0_11ast_managerEE3endEv.exit.i.i ]
  %10 = load ptr, ptr %__begin1.015.i.i, align 8
  %11 = load ptr, ptr %newbits, align 8
  %cmp.i.i.i = icmp eq ptr %11, null
  br i1 %cmp.i.i.i, label %if.then.i.i.i, label %lor.lhs.false.i.i.i

lor.lhs.false.i.i.i:                              ; preds = %for.body9.i.i
  %arrayidx.i.i.i = getelementptr inbounds i8, ptr %11, i64 -4
  %12 = load i32, ptr %arrayidx.i.i.i, align 4
  %arrayidx4.i.i.i = getelementptr inbounds i8, ptr %11, i64 -8
  %13 = load i32, ptr %arrayidx4.i.i.i, align 4
  %cmp5.i.i.i = icmp eq i32 %12, %13
  br i1 %cmp5.i.i.i, label %if.then.i.i.i, label %_ZN6vectorIP9func_declLb0EjE9push_backERKS1_.exit.i.i

if.then.i.i.i:                                    ; preds = %lor.lhs.false.i.i.i, %for.body9.i.i
  call void @_ZN6vectorIP9func_declLb0EjE13expand_vectorEv(ptr noundef nonnull align 8 dereferenceable(8) %newbits)
  %.pre.i.i.i = load ptr, ptr %newbits, align 8
  %arrayidx8.phi.trans.insert.i.i.i = getelementptr inbounds i8, ptr %.pre.i.i.i, i64 -4
  %.pre1.i.i.i = load i32, ptr %arrayidx8.phi.trans.insert.i.i.i, align 4
  br label %_ZN6vectorIP9func_declLb0EjE9push_backERKS1_.exit.i.i

_ZN6vectorIP9func_declLb0EjE9push_backERKS1_.exit.i.i: ; preds = %if.then.i.i.i, %lor.lhs.false.i.i.i
  %14 = phi i32 [ %.pre1.i.i.i, %if.then.i.i.i ], [ %12, %lor.lhs.false.i.i.i ]
  %15 = phi ptr [ %.pre.i.i.i, %if.then.i.i.i ], [ %11, %lor.lhs.false.i.i.i ]
  %idx.ext.i.i.i = zext i32 %14 to i64
  %add.ptr.i13.i.i = getelementptr inbounds ptr, ptr %15, i64 %idx.ext.i.i.i
  store ptr %10, ptr %add.ptr.i13.i.i, align 8
  %16 = load ptr, ptr %newbits, align 8
  %arrayidx10.i.i.i = getelementptr inbounds i8, ptr %16, i64 -4
  %17 = load i32, ptr %arrayidx10.i.i.i, align 4
  %inc.i.i.i = add i32 %17, 1
  store i32 %inc.i.i.i, ptr %arrayidx10.i.i.i, align 4
  %incdec.ptr.i.i = getelementptr inbounds i8, ptr %__begin1.015.i.i, i64 8
  %cmp8.not.i.i = icmp eq ptr %incdec.ptr.i.i, %add.ptr.i.i.i
  br i1 %cmp8.not.i.i, label %_ZN20bit_blaster_rewriter3imp15get_translationER7obj_mapI9func_declP4exprER10ptr_vectorIS2_E.exit, label %for.body9.i.i

_ZN20bit_blaster_rewriter3imp15get_translationER7obj_mapI9func_declP4exprER10ptr_vectorIS2_E.exit: ; preds = %_ZN6vectorIP9func_declLb0EjE9push_backERKS1_.exit.i.i, %for.end.i.i, %_ZNK15ref_vector_coreI9func_decl19ref_manager_wrapperIS0_11ast_managerEE3endEv.exit.i.i
  ret void
}